	.file	"main.cpp"
	.text
	.section	.rodata
	.type	_ZStL19piecewise_construct, @object
	.size	_ZStL19piecewise_construct, 1
_ZStL19piecewise_construct:
	.zero	1
	.local	_ZStL8__ioinit
	.comm	_ZStL8__ioinit,1,1
	.section	.text._ZNSt6chrono8durationIlSt5ratioILl1ELl1000000000EEEC1IlvEERKT_,"axG",@progbits,_ZNSt6chrono8durationIlSt5ratioILl1ELl1000000000EEEC1IlvEERKT_,comdat
	.align 2
	.weak	_ZNSt6chrono8durationIlSt5ratioILl1ELl1000000000EEEC1IlvEERKT_
	.type	_ZNSt6chrono8durationIlSt5ratioILl1ELl1000000000EEEC1IlvEERKT_, @function
_ZNSt6chrono8durationIlSt5ratioILl1ELl1000000000EEEC1IlvEERKT_:
.LFB1745:
	.cfi_startproc
	pushq	%rbp
	.cfi_def_cfa_offset 16
	.cfi_offset 6, -16
	movq	%rsp, %rbp
	.cfi_def_cfa_register 6
	movq	%rdi, -8(%rbp)
	movq	%rsi, -16(%rbp)
	movq	-16(%rbp), %rax
	movq	(%rax), %rdx
	movq	-8(%rbp), %rax
	movq	%rdx, (%rax)
	nop
	popq	%rbp
	.cfi_def_cfa 7, 8
	ret
	.cfi_endproc
.LFE1745:
	.size	_ZNSt6chrono8durationIlSt5ratioILl1ELl1000000000EEEC1IlvEERKT_, .-_ZNSt6chrono8durationIlSt5ratioILl1ELl1000000000EEEC1IlvEERKT_
	.section	.text._ZNKSt6chrono8durationIlSt5ratioILl1ELl1000000000EEE5countEv,"axG",@progbits,_ZNKSt6chrono8durationIlSt5ratioILl1ELl1000000000EEE5countEv,comdat
	.align 2
	.weak	_ZNKSt6chrono8durationIlSt5ratioILl1ELl1000000000EEE5countEv
	.type	_ZNKSt6chrono8durationIlSt5ratioILl1ELl1000000000EEE5countEv, @function
_ZNKSt6chrono8durationIlSt5ratioILl1ELl1000000000EEE5countEv:
.LFB1749:
	.cfi_startproc
	pushq	%rbp
	.cfi_def_cfa_offset 16
	.cfi_offset 6, -16
	movq	%rsp, %rbp
	.cfi_def_cfa_register 6
	movq	%rdi, -8(%rbp)
	movq	-8(%rbp), %rax
	movq	(%rax), %rax
	popq	%rbp
	.cfi_def_cfa 7, 8
	ret
	.cfi_endproc
.LFE1749:
	.size	_ZNKSt6chrono8durationIlSt5ratioILl1ELl1000000000EEE5countEv, .-_ZNKSt6chrono8durationIlSt5ratioILl1ELl1000000000EEE5countEv
	.section	.text._ZNKSt6chrono10time_pointINS_3_V212system_clockENS_8durationIlSt5ratioILl1ELl1000000000EEEEE16time_since_epochEv,"axG",@progbits,_ZNKSt6chrono10time_pointINS_3_V212system_clockENS_8durationIlSt5ratioILl1ELl1000000000EEEEE16time_since_epochEv,comdat
	.align 2
	.weak	_ZNKSt6chrono10time_pointINS_3_V212system_clockENS_8durationIlSt5ratioILl1ELl1000000000EEEEE16time_since_epochEv
	.type	_ZNKSt6chrono10time_pointINS_3_V212system_clockENS_8durationIlSt5ratioILl1ELl1000000000EEEEE16time_since_epochEv, @function
_ZNKSt6chrono10time_pointINS_3_V212system_clockENS_8durationIlSt5ratioILl1ELl1000000000EEEEE16time_since_epochEv:
.LFB1751:
	.cfi_startproc
	pushq	%rbp
	.cfi_def_cfa_offset 16
	.cfi_offset 6, -16
	movq	%rsp, %rbp
	.cfi_def_cfa_register 6
	movq	%rdi, -8(%rbp)
	movq	-8(%rbp), %rax
	movq	(%rax), %rax
	popq	%rbp
	.cfi_def_cfa 7, 8
	ret
	.cfi_endproc
.LFE1751:
	.size	_ZNKSt6chrono10time_pointINS_3_V212system_clockENS_8durationIlSt5ratioILl1ELl1000000000EEEEE16time_since_epochEv, .-_ZNKSt6chrono10time_pointINS_3_V212system_clockENS_8durationIlSt5ratioILl1ELl1000000000EEEEE16time_since_epochEv
	.section	.text._ZNSt6chronomiIlSt5ratioILl1ELl1000000000EElS2_EENSt11common_typeIJNS_8durationIT_T0_EENS4_IT1_T2_EEEE4typeERKS7_RKSA_,"axG",@progbits,_ZNSt6chronomiIlSt5ratioILl1ELl1000000000EElS2_EENSt11common_typeIJNS_8durationIT_T0_EENS4_IT1_T2_EEEE4typeERKS7_RKSA_,comdat
	.weak	_ZNSt6chronomiIlSt5ratioILl1ELl1000000000EElS2_EENSt11common_typeIJNS_8durationIT_T0_EENS4_IT1_T2_EEEE4typeERKS7_RKSA_
	.type	_ZNSt6chronomiIlSt5ratioILl1ELl1000000000EElS2_EENSt11common_typeIJNS_8durationIT_T0_EENS4_IT1_T2_EEEE4typeERKS7_RKSA_, @function
_ZNSt6chronomiIlSt5ratioILl1ELl1000000000EElS2_EENSt11common_typeIJNS_8durationIT_T0_EENS4_IT1_T2_EEEE4typeERKS7_RKSA_:
.LFB5466:
	.cfi_startproc
	pushq	%rbp
	.cfi_def_cfa_offset 16
	.cfi_offset 6, -16
	movq	%rsp, %rbp
	.cfi_def_cfa_register 6
	pushq	%rbx
	subq	$72, %rsp
	.cfi_offset 3, -24
	movq	%rdi, -72(%rbp)
	movq	%rsi, -80(%rbp)
	movq	%fs:40, %rax
	movq	%rax, -24(%rbp)
	xorl	%eax, %eax
	movq	-72(%rbp), %rax
	movq	(%rax), %rax
	movq	%rax, -56(%rbp)
	leaq	-56(%rbp), %rax
	movq	%rax, %rdi
	call	_ZNKSt6chrono8durationIlSt5ratioILl1ELl1000000000EEE5countEv
	movq	%rax, %rbx
	movq	-80(%rbp), %rax
	movq	(%rax), %rax
	movq	%rax, -48(%rbp)
	leaq	-48(%rbp), %rax
	movq	%rax, %rdi
	call	_ZNKSt6chrono8durationIlSt5ratioILl1ELl1000000000EEE5countEv
	subq	%rax, %rbx
	movq	%rbx, %rax
	movq	%rax, -40(%rbp)
	leaq	-40(%rbp), %rdx
	leaq	-32(%rbp), %rax
	movq	%rdx, %rsi
	movq	%rax, %rdi
	call	_ZNSt6chrono8durationIlSt5ratioILl1ELl1000000000EEEC1IlvEERKT_
	movq	-32(%rbp), %rax
	movq	-24(%rbp), %rcx
	xorq	%fs:40, %rcx
	je	.L8
	call	__stack_chk_fail@PLT
.L8:
	addq	$72, %rsp
	popq	%rbx
	popq	%rbp
	.cfi_def_cfa 7, 8
	ret
	.cfi_endproc
.LFE5466:
	.size	_ZNSt6chronomiIlSt5ratioILl1ELl1000000000EElS2_EENSt11common_typeIJNS_8durationIT_T0_EENS4_IT1_T2_EEEE4typeERKS7_RKSA_, .-_ZNSt6chronomiIlSt5ratioILl1ELl1000000000EElS2_EENSt11common_typeIJNS_8durationIT_T0_EENS4_IT1_T2_EEEE4typeERKS7_RKSA_
	.section	.text._ZNSt6chronomiINS_3_V212system_clockENS_8durationIlSt5ratioILl1ELl1000000000EEEES6_EENSt11common_typeIJT0_T1_EE4typeERKNS_10time_pointIT_S8_EERKNSC_ISD_S9_EE,"axG",@progbits,_ZNSt6chronomiINS_3_V212system_clockENS_8durationIlSt5ratioILl1ELl1000000000EEEES6_EENSt11common_typeIJT0_T1_EE4typeERKNS_10time_pointIT_S8_EERKNSC_ISD_S9_EE,comdat
	.weak	_ZNSt6chronomiINS_3_V212system_clockENS_8durationIlSt5ratioILl1ELl1000000000EEEES6_EENSt11common_typeIJT0_T1_EE4typeERKNS_10time_pointIT_S8_EERKNSC_ISD_S9_EE
	.type	_ZNSt6chronomiINS_3_V212system_clockENS_8durationIlSt5ratioILl1ELl1000000000EEEES6_EENSt11common_typeIJT0_T1_EE4typeERKNS_10time_pointIT_S8_EERKNSC_ISD_S9_EE, @function
_ZNSt6chronomiINS_3_V212system_clockENS_8durationIlSt5ratioILl1ELl1000000000EEEES6_EENSt11common_typeIJT0_T1_EE4typeERKNS_10time_pointIT_S8_EERKNSC_ISD_S9_EE:
.LFB5465:
	.cfi_startproc
	pushq	%rbp
	.cfi_def_cfa_offset 16
	.cfi_offset 6, -16
	movq	%rsp, %rbp
	.cfi_def_cfa_register 6
	subq	$48, %rsp
	movq	%rdi, -40(%rbp)
	movq	%rsi, -48(%rbp)
	movq	%fs:40, %rax
	movq	%rax, -8(%rbp)
	xorl	%eax, %eax
	movq	-48(%rbp), %rax
	movq	%rax, %rdi
	call	_ZNKSt6chrono10time_pointINS_3_V212system_clockENS_8durationIlSt5ratioILl1ELl1000000000EEEEE16time_since_epochEv
	movq	%rax, -16(%rbp)
	movq	-40(%rbp), %rax
	movq	%rax, %rdi
	call	_ZNKSt6chrono10time_pointINS_3_V212system_clockENS_8durationIlSt5ratioILl1ELl1000000000EEEEE16time_since_epochEv
	movq	%rax, -24(%rbp)
	leaq	-16(%rbp), %rdx
	leaq	-24(%rbp), %rax
	movq	%rdx, %rsi
	movq	%rax, %rdi
	call	_ZNSt6chronomiIlSt5ratioILl1ELl1000000000EElS2_EENSt11common_typeIJNS_8durationIT_T0_EENS4_IT1_T2_EEEE4typeERKS7_RKSA_
	movq	-8(%rbp), %rcx
	xorq	%fs:40, %rcx
	je	.L11
	call	__stack_chk_fail@PLT
.L11:
	leave
	.cfi_def_cfa 7, 8
	ret
	.cfi_endproc
.LFE5465:
	.size	_ZNSt6chronomiINS_3_V212system_clockENS_8durationIlSt5ratioILl1ELl1000000000EEEES6_EENSt11common_typeIJT0_T1_EE4typeERKNS_10time_pointIT_S8_EERKNSC_ISD_S9_EE, .-_ZNSt6chronomiINS_3_V212system_clockENS_8durationIlSt5ratioILl1ELl1000000000EEEES6_EENSt11common_typeIJT0_T1_EE4typeERKNS_10time_pointIT_S8_EERKNSC_ISD_S9_EE
	.section	.rodata
.LC0:
	.string	"Naive time: "
.LC1:
	.string	" nanoseconds"
.LC2:
	.string	"Version1 time: "
	.text
	.globl	main
	.type	main, @function
main:
.LFB5464:
	.cfi_startproc
	leaq	8(%rsp), %r10
	.cfi_def_cfa 10, 0
	andq	$-32, %rsp
	pushq	-8(%r10)
	pushq	%rbp
	.cfi_escape 0x10,0x6,0x2,0x76,0
	movq	%rsp, %rbp
	pushq	%r10
	.cfi_escape 0xf,0x3,0x76,0x78,0x6
	pushq	%rbx
	subq	$12480, %rsp
	.cfi_escape 0x10,0x3,0x2,0x76,0x70
	movq	%fs:40, %rax
	movq	%rax, -24(%rbp)
	xorl	%eax, %eax
	movl	$0, -12472(%rbp)
.L16:
	cmpl	$31, -12472(%rbp)
	jg	.L13
	movl	$0, -12468(%rbp)
.L15:
	cmpl	$31, -12468(%rbp)
	jg	.L14
	movl	-12468(%rbp), %eax
	cltq
	movl	-12472(%rbp), %edx
	movslq	%edx, %rdx
	salq	$5, %rdx
	addq	%rdx, %rax
	movl	$1, -12320(%rbp,%rax,4)
	movl	-12468(%rbp), %eax
	cltq
	movl	-12472(%rbp), %edx
	movslq	%edx, %rdx
	salq	$5, %rdx
	addq	%rdx, %rax
	movl	$1, -8224(%rbp,%rax,4)
	addl	$1, -12468(%rbp)
	jmp	.L15
.L14:
	addl	$1, -12472(%rbp)
	jmp	.L16
.L13:
	call	_ZNSt6chrono3_V212system_clock3nowEv@PLT
	movq	%rax, -12456(%rbp)
	movl	$0, -12464(%rbp)
.L18:
	cmpl	$9999, -12464(%rbp)
	jg	.L17
	leaq	-4128(%rbp), %rdx
	leaq	-8224(%rbp), %rcx
	leaq	-12320(%rbp), %rax
	movq	%rcx, %rsi
	movq	%rax, %rdi
	call	_Z13version_naiveILm32EEvPAT__iS1_S1_
	addl	$1, -12464(%rbp)
	jmp	.L18
.L17:
	call	_ZNSt6chrono3_V212system_clock3nowEv@PLT
	movq	%rax, -12448(%rbp)
	leaq	.LC0(%rip), %rsi
	leaq	_ZSt4cout(%rip), %rdi
	call	_ZStlsISt11char_traitsIcEERSt13basic_ostreamIcT_ES5_PKc@PLT
	movq	%rax, %rbx
	leaq	-12456(%rbp), %rdx
	leaq	-12448(%rbp), %rax
	movq	%rdx, %rsi
	movq	%rax, %rdi
	call	_ZNSt6chronomiINS_3_V212system_clockENS_8durationIlSt5ratioILl1ELl1000000000EEEES6_EENSt11common_typeIJT0_T1_EE4typeERKNS_10time_pointIT_S8_EERKNSC_ISD_S9_EE
	movq	%rax, -12440(%rbp)
	leaq	-12440(%rbp), %rax
	movq	%rax, %rdi
	call	_ZNKSt6chrono8durationIlSt5ratioILl1ELl1000000000EEE5countEv
	movq	%rax, %rcx
	movabsq	$3777893186295716171, %rdx
	movq	%rcx, %rax
	imulq	%rdx
	sarq	$11, %rdx
	movq	%rcx, %rax
	sarq	$63, %rax
	subq	%rax, %rdx
	movq	%rdx, %rax
	movq	%rax, %rsi
	movq	%rbx, %rdi
	call	_ZNSolsEl@PLT
	leaq	.LC1(%rip), %rsi
	movq	%rax, %rdi
	call	_ZStlsISt11char_traitsIcEERSt13basic_ostreamIcT_ES5_PKc@PLT
	movq	%rax, %rdx
	movq	_ZSt4endlIcSt11char_traitsIcEERSt13basic_ostreamIT_T0_ES6_@GOTPCREL(%rip), %rax
	movq	%rax, %rsi
	movq	%rdx, %rdi
	call	_ZNSolsEPFRSoS_E@PLT
	vpxor	%xmm0, %xmm0, %xmm0
	vmovdqa	%ymm0, -12432(%rbp)
	vpxor	%xmm0, %xmm0, %xmm0
	vmovdqa	%ymm0, -12400(%rbp)
	vpxor	%xmm0, %xmm0, %xmm0
	vmovdqa	%ymm0, -12368(%rbp)
	call	_ZNSt6chrono3_V212system_clock3nowEv@PLT
	movq	%rax, -12456(%rbp)
	movl	$0, -12460(%rbp)
.L23:
	cmpl	$9999, -12460(%rbp)
	jg	.L22
	leaq	-4128(%rbp), %rdx
	leaq	-8224(%rbp), %rcx
	leaq	-12320(%rbp), %rax
	vmovdqa	-12368(%rbp), %ymm2
	vmovdqa	-12400(%rbp), %ymm1
	vmovdqa	-12432(%rbp), %ymm0
	movq	%rcx, %rsi
	movq	%rax, %rdi
	call	_Z9version_1ILm32EEvDv4_xS0_S0_PAT__iS2_S2_
	addl	$1, -12460(%rbp)
	jmp	.L23
.L22:
	call	_ZNSt6chrono3_V212system_clock3nowEv@PLT
	movq	%rax, -12448(%rbp)
	leaq	.LC2(%rip), %rsi
	leaq	_ZSt4cout(%rip), %rdi
	call	_ZStlsISt11char_traitsIcEERSt13basic_ostreamIcT_ES5_PKc@PLT
	movq	%rax, %rbx
	leaq	-12456(%rbp), %rdx
	leaq	-12448(%rbp), %rax
	movq	%rdx, %rsi
	movq	%rax, %rdi
	call	_ZNSt6chronomiINS_3_V212system_clockENS_8durationIlSt5ratioILl1ELl1000000000EEEES6_EENSt11common_typeIJT0_T1_EE4typeERKNS_10time_pointIT_S8_EERKNSC_ISD_S9_EE
	movq	%rax, -12440(%rbp)
	leaq	-12440(%rbp), %rax
	movq	%rax, %rdi
	call	_ZNKSt6chrono8durationIlSt5ratioILl1ELl1000000000EEE5countEv
	movq	%rax, %rcx
	movabsq	$3777893186295716171, %rdx
	movq	%rcx, %rax
	imulq	%rdx
	sarq	$11, %rdx
	movq	%rcx, %rax
	sarq	$63, %rax
	subq	%rax, %rdx
	movq	%rdx, %rax
	movq	%rax, %rsi
	movq	%rbx, %rdi
	call	_ZNSolsEl@PLT
	leaq	.LC1(%rip), %rsi
	movq	%rax, %rdi
	call	_ZStlsISt11char_traitsIcEERSt13basic_ostreamIcT_ES5_PKc@PLT
	movq	%rax, %rdx
	movq	_ZSt4endlIcSt11char_traitsIcEERSt13basic_ostreamIT_T0_ES6_@GOTPCREL(%rip), %rax
	movq	%rax, %rsi
	movq	%rdx, %rdi
	call	_ZNSolsEPFRSoS_E@PLT
	movl	$0, %eax
	movq	-24(%rbp), %rbx
	xorq	%fs:40, %rbx
	je	.L25
	call	__stack_chk_fail@PLT
.L25:
	addq	$12480, %rsp
	popq	%rbx
	popq	%r10
	.cfi_def_cfa 10, 0
	popq	%rbp
	leaq	-8(%r10), %rsp
	.cfi_def_cfa 7, 8
	ret
	.cfi_endproc
.LFE5464:
	.size	main, .-main
	.section	.text._Z13version_naiveILm32EEvPAT__iS1_S1_,"axG",@progbits,_Z13version_naiveILm32EEvPAT__iS1_S1_,comdat
	.weak	_Z13version_naiveILm32EEvPAT__iS1_S1_
	.type	_Z13version_naiveILm32EEvPAT__iS1_S1_, @function
_Z13version_naiveILm32EEvPAT__iS1_S1_:
.LFB5703:
	.cfi_startproc
	pushq	%rbp
	.cfi_def_cfa_offset 16
	.cfi_offset 6, -16
	movq	%rsp, %rbp
	.cfi_def_cfa_register 6
	movq	%rdi, -24(%rbp)
	movq	%rsi, -32(%rbp)
	movq	%rdx, -40(%rbp)
	movl	$0, -12(%rbp)
.L32:
	movl	-12(%rbp), %eax
	cltq
	cmpq	$31, %rax
	ja	.L33
	movl	$0, -8(%rbp)
.L31:
	movl	-8(%rbp), %eax
	cltq
	cmpq	$31, %rax
	ja	.L28
	movl	-12(%rbp), %eax
	cltq
	salq	$7, %rax
	movq	%rax, %rdx
	movq	-40(%rbp), %rax
	addq	%rax, %rdx
	movl	-8(%rbp), %eax
	cltq
	movl	$0, (%rdx,%rax,4)
	movl	$0, -4(%rbp)
.L30:
	movl	-4(%rbp), %eax
	cltq
	cmpq	$31, %rax
	ja	.L29
	movl	-12(%rbp), %eax
	cltq
	salq	$7, %rax
	movq	%rax, %rdx
	movq	-40(%rbp), %rax
	addq	%rax, %rdx
	movl	-8(%rbp), %eax
	cltq
	movl	(%rdx,%rax,4), %ecx
	movl	-12(%rbp), %eax
	cltq
	salq	$7, %rax
	movq	%rax, %rdx
	movq	-24(%rbp), %rax
	addq	%rax, %rdx
	movl	-8(%rbp), %eax
	cltq
	movl	(%rdx,%rax,4), %eax
	movl	-12(%rbp), %edx
	movslq	%edx, %rdx
	movq	%rdx, %rsi
	salq	$7, %rsi
	movq	-40(%rbp), %rdx
	addq	%rsi, %rdx
	addl	%eax, %ecx
	movl	-8(%rbp), %eax
	cltq
	movl	%ecx, (%rdx,%rax,4)
	addl	$1, -4(%rbp)
	jmp	.L30
.L29:
	addl	$1, -8(%rbp)
	jmp	.L31
.L28:
	addl	$1, -12(%rbp)
	jmp	.L32
.L33:
	nop
	popq	%rbp
	.cfi_def_cfa 7, 8
	ret
	.cfi_endproc
.LFE5703:
	.size	_Z13version_naiveILm32EEvPAT__iS1_S1_, .-_Z13version_naiveILm32EEvPAT__iS1_S1_
	.section	.text._Z9version_1ILm32EEvDv4_xS0_S0_PAT__iS2_S2_,"axG",@progbits,_Z9version_1ILm32EEvDv4_xS0_S0_PAT__iS2_S2_,comdat
	.weak	_Z9version_1ILm32EEvDv4_xS0_S0_PAT__iS2_S2_
	.type	_Z9version_1ILm32EEvDv4_xS0_S0_PAT__iS2_S2_, @function
_Z9version_1ILm32EEvDv4_xS0_S0_PAT__iS2_S2_:
.LFB5708:
	.cfi_startproc
	leaq	8(%rsp), %r10
	.cfi_def_cfa 10, 0
	andq	$-32, %rsp
	pushq	-8(%r10)
	pushq	%rbp
	.cfi_escape 0x10,0x6,0x2,0x76,0
	movq	%rsp, %rbp
	pushq	%r10
	.cfi_escape 0xf,0x3,0x76,0x78,0x6
	subq	$240, %rsp
	vmovdqa	%ymm0, -272(%rbp)
	vmovdqa	%ymm1, -304(%rbp)
	vmovdqa	%ymm2, -336(%rbp)
	movq	%rdi, -232(%rbp)
	movq	%rsi, -240(%rbp)
	movq	%rdx, -344(%rbp)
	movl	$0, -216(%rbp)
.L45:
	movl	-216(%rbp), %eax
	cltq
	cmpq	$31, %rax
	ja	.L46
	movl	$0, -212(%rbp)
.L44:
	movl	-212(%rbp), %eax
	cltq
	cmpq	$31, %rax
	ja	.L36
	movl	-216(%rbp), %eax
	cltq
	salq	$7, %rax
	movq	%rax, %rdx
	movq	-232(%rbp), %rax
	addq	%rax, %rdx
	movl	-212(%rbp), %eax
	cltq
	movl	(%rdx,%rax,4), %eax
	movl	%eax, -204(%rbp)
	vpbroadcastd	-204(%rbp), %ymm0
	vmovdqa	%ymm0, -304(%rbp)
	movl	$0, -208(%rbp)
.L43:
	movl	-208(%rbp), %eax
	cltq
	cmpq	$31, %rax
	ja	.L38
	movl	-212(%rbp), %eax
	cltq
	salq	$7, %rax
	movq	%rax, %rdx
	movq	-240(%rbp), %rax
	addq	%rax, %rdx
	movl	-208(%rbp), %eax
	cltq
	salq	$2, %rax
	addq	%rdx, %rax
	movq	%rax, -184(%rbp)
	movq	-184(%rbp), %rax
	vmovdqu	(%rax), %ymm0
	vmovdqa	%ymm0, -336(%rbp)
	movl	-216(%rbp), %eax
	cltq
	salq	$7, %rax
	movq	%rax, %rdx
	movq	-344(%rbp), %rax
	addq	%rax, %rdx
	movl	-208(%rbp), %eax
	cltq
	salq	$2, %rax
	addq	%rdx, %rax
	movq	%rax, -192(%rbp)
	movq	-192(%rbp), %rax
	vmovdqu	(%rax), %ymm0
	vmovdqa	%ymm0, -272(%rbp)
	vmovdqa	-304(%rbp), %ymm0
	vmovdqa	%ymm0, -80(%rbp)
	vmovdqa	-336(%rbp), %ymm0
	vmovdqa	%ymm0, -48(%rbp)
	vmovdqa	-80(%rbp), %ymm1
	vmovdqa	-48(%rbp), %ymm0
	vpmulld	%ymm0, %ymm1, %ymm0
	vmovdqa	%ymm0, %ymm1
	vmovdqa	-272(%rbp), %ymm0
	vmovdqa	%ymm0, -144(%rbp)
	vmovdqa	%ymm1, -112(%rbp)
	vmovdqa	-144(%rbp), %ymm1
	vmovdqa	-112(%rbp), %ymm0
	vpaddd	%ymm0, %ymm1, %ymm0
	vmovdqa	%ymm0, -272(%rbp)
	movl	-216(%rbp), %eax
	cltq
	salq	$7, %rax
	movq	%rax, %rdx
	movq	-344(%rbp), %rax
	addq	%rax, %rdx
	movl	-208(%rbp), %eax
	cltq
	salq	$2, %rax
	addq	%rdx, %rax
	movq	%rax, -200(%rbp)
	vmovdqa	-272(%rbp), %ymm0
	vmovdqa	%ymm0, -176(%rbp)
	vmovdqa	-176(%rbp), %ymm0
	movq	-200(%rbp), %rax
	vmovdqu	%ymm0, (%rax)
	addl	$8, -208(%rbp)
	jmp	.L43
.L38:
	addl	$1, -212(%rbp)
	jmp	.L44
.L36:
	addl	$1, -216(%rbp)
	jmp	.L45
.L46:
	nop
	addq	$240, %rsp
	popq	%r10
	.cfi_def_cfa 10, 0
	popq	%rbp
	leaq	-8(%r10), %rsp
	.cfi_def_cfa 7, 8
	ret
	.cfi_endproc
.LFE5708:
	.size	_Z9version_1ILm32EEvDv4_xS0_S0_PAT__iS2_S2_, .-_Z9version_1ILm32EEvDv4_xS0_S0_PAT__iS2_S2_
	.text
	.type	_Z41__static_initialization_and_destruction_0ii, @function
_Z41__static_initialization_and_destruction_0ii:
.LFB5958:
	.cfi_startproc
	pushq	%rbp
	.cfi_def_cfa_offset 16
	.cfi_offset 6, -16
	movq	%rsp, %rbp
	.cfi_def_cfa_register 6
	subq	$16, %rsp
	movl	%edi, -4(%rbp)
	movl	%esi, -8(%rbp)
	cmpl	$1, -4(%rbp)
	jne	.L49
	cmpl	$65535, -8(%rbp)
	jne	.L49
	leaq	_ZStL8__ioinit(%rip), %rdi
	call	_ZNSt8ios_base4InitC1Ev@PLT
	leaq	__dso_handle(%rip), %rdx
	leaq	_ZStL8__ioinit(%rip), %rsi
	movq	_ZNSt8ios_base4InitD1Ev@GOTPCREL(%rip), %rax
	movq	%rax, %rdi
	call	__cxa_atexit@PLT
.L49:
	nop
	leave
	.cfi_def_cfa 7, 8
	ret
	.cfi_endproc
.LFE5958:
	.size	_Z41__static_initialization_and_destruction_0ii, .-_Z41__static_initialization_and_destruction_0ii
	.type	_GLOBAL__sub_I_main, @function
_GLOBAL__sub_I_main:
.LFB5959:
	.cfi_startproc
	pushq	%rbp
	.cfi_def_cfa_offset 16
	.cfi_offset 6, -16
	movq	%rsp, %rbp
	.cfi_def_cfa_register 6
	movl	$65535, %esi
	movl	$1, %edi
	call	_Z41__static_initialization_and_destruction_0ii
	popq	%rbp
	.cfi_def_cfa 7, 8
	ret
	.cfi_endproc
.LFE5959:
	.size	_GLOBAL__sub_I_main, .-_GLOBAL__sub_I_main
	.section	.init_array,"aw"
	.align 8
	.quad	_GLOBAL__sub_I_main
	.hidden	__dso_handle
	.ident	"GCC: (Ubuntu 7.4.0-1ubuntu1~18.04.1) 7.4.0"
	.section	.note.GNU-stack,"",@progbits
